target datalayout = "e-m:e-p270:32:32-p271:32:32-p272:64:64-i64:64-i128:128-f80:128-n8:16:32:64-S128"
target triple = "x86_64-pc-linux-gnu"

%struct.AVCodecContext = type { ptr, i32, i32, ptr, i32, i32, ptr, ptr, ptr, i64, i32, i32, ptr, i32, %struct.AVRational, %struct.AVRational, %struct.AVRational, i32, i32, i32, i32, i32, %struct.AVRational, i32, i32, i32, i32, i32, i32, i32, i32, i32, i32, i32, ptr, ptr, i32, float, float, float, float, float, float, float, float, float, i32, i32, i32, i32, i32, i32, i32, i32, i32, i32, i32, i32, ptr, ptr, ptr, i32, i32, i32, i32, i32, i32, i32, i32, i32, i32, %struct.AVChannelLayout, i32, i32, i32, i32, i32, i32, i32, i32, ptr, i32, i32, i32, float, float, i32, i32, i32, i32, i32, ptr, i64, i64, float, float, i32, i32, ptr, ptr, i32, i32, i32, i32, i32, ptr, ptr, ptr, ptr, i32, i32, [8 x i64], i32, i32, i32, i32, i32, i32, i32, ptr, ptr, i32, i32, i32, i32, i32, i32, i32, i32, i32, i32, ptr, ptr, i32, i32, ptr, ptr, ptr, ptr, i32, i32, i64, i32, i32, i64, ptr, i64, ptr, i32, ptr, i32 }
%struct.AVRational = type { i32, i32 }
%struct.AVChannelLayout = type { i32, i32, %union.anon.0, ptr }
%union.anon.0 = type { i64 }
%struct.PCMLUTDecode = type { %struct.PCMDecode, [256 x i16] }
%struct.PCMDecode = type { i32 }

; Function Attrs: cold nounwind optsize uwtable
define internal i32 @vidc2linear(i8 noundef zeroext %0) #0 {
  %2 = alloca i8, align 1
  %3 = alloca i32, align 4
  store i8 %0, ptr %2, align 1, !tbaa !67
  call void @llvm.lifetime.start.p0(i64 4, ptr %3) #8
  %4 = load i8, ptr %2, align 1, !tbaa !67
  %5 = zext i8 %4 to i32
  %6 = and i32 %5, 30
  %7 = ashr i32 %6, 1
  %8 = shl i32 %7, 3
  %9 = add nsw i32 %8, 132
  store i32 %9, ptr %3, align 4, !tbaa !32
  %10 = load i8, ptr %2, align 1, !tbaa !67
  %11 = zext i8 %10 to i32
  %12 = and i32 %11, 224
  %13 = lshr i32 %12, 5
  %14 = load i32, ptr %3, align 4, !tbaa !32
  %15 = shl i32 %14, %13
  store i32 %15, ptr %3, align 4, !tbaa !32
  %16 = load i8, ptr %2, align 1, !tbaa !67
  %17 = zext i8 %16 to i32
  %18 = and i32 %17, 1
  %19 = icmp ne i32 %18, 0
  br i1 %19, label %20, label %23

20:                                               ; preds = %1
  %21 = load i32, ptr %3, align 4, !tbaa !32
  %22 = sub nsw i32 132, %21
  br label %26

23:                                               ; preds = %1
  %24 = load i32, ptr %3, align 4, !tbaa !32
  %25 = sub nsw i32 %24, 132
  br label %26

26:                                               ; preds = %23, %20
  %27 = phi i32 [ %22, %20 ], [ %25, %23 ]
  call void @llvm.lifetime.end.p0(i64 4, ptr %3) #8
  ret i32 %27
}

; Function Attrs: cold nounwind optsize uwtable
define internal i32 @ulaw2linear(i8 noundef zeroext %0) #0 {
  %2 = alloca i8, align 1
  %3 = alloca i32, align 4
  store i8 %0, ptr %2, align 1, !tbaa !67
  call void @llvm.lifetime.start.p0(i64 4, ptr %3) #8
  %4 = load i8, ptr %2, align 1, !tbaa !67
  %5 = zext i8 %4 to i32
  %6 = xor i32 %5, -1
  %7 = trunc i32 %6 to i8
  store i8 %7, ptr %2, align 1, !tbaa !67
  %8 = load i8, ptr %2, align 1, !tbaa !67
  %9 = zext i8 %8 to i32
  %10 = and i32 %9, 15
  %11 = shl i32 %10, 3
  %12 = add nsw i32 %11, 132
  store i32 %12, ptr %3, align 4, !tbaa !32
  %13 = load i8, ptr %2, align 1, !tbaa !67
  %14 = zext i8 %13 to i32
  %15 = and i32 %14, 112
  %16 = lshr i32 %15, 4
  %17 = load i32, ptr %3, align 4, !tbaa !32
  %18 = shl i32 %17, %16
  store i32 %18, ptr %3, align 4, !tbaa !32
  %19 = load i8, ptr %2, align 1, !tbaa !67
  %20 = zext i8 %19 to i32
  %21 = and i32 %20, 128
  %22 = icmp ne i32 %21, 0
  br i1 %22, label %23, label %26

23:                                               ; preds = %1
  %24 = load i32, ptr %3, align 4, !tbaa !32
  %25 = sub nsw i32 132, %24
  br label %29

26:                                               ; preds = %1
  %27 = load i32, ptr %3, align 4, !tbaa !32
  %28 = sub nsw i32 %27, 132
  br label %29

29:                                               ; preds = %26, %23
  %30 = phi i32 [ %25, %23 ], [ %28, %26 ]
  call void @llvm.lifetime.end.p0(i64 4, ptr %3) #8
  ret i32 %30
}

; Function Attrs: cold nounwind optsize uwtable
define internal i32 @pcm_lut_decode_init(ptr noundef %0) #0 {
  %2 = alloca ptr, align 8
  %3 = alloca ptr, align 8
  %4 = alloca i32, align 4
  %5 = alloca i32, align 4
  %6 = alloca i32, align 4
  store ptr %0, ptr %2, align 8, !tbaa !4
  call void @llvm.lifetime.start.p0(i64 8, ptr %3) #8
  %7 = load ptr, ptr %2, align 8, !tbaa !4
  %8 = getelementptr inbounds nuw %struct.AVCodecContext, ptr %7, i32 0, i32 6
  %9 = load ptr, ptr %8, align 8, !tbaa !9
  store ptr %9, ptr %3, align 8, !tbaa !29
  %10 = load ptr, ptr %2, align 8, !tbaa !4
  %11 = getelementptr inbounds nuw %struct.AVCodecContext, ptr %10, i32 0, i32 4
  %12 = load i32, ptr %11, align 8, !tbaa !31
  switch i32 %12, label %70 [
    i32 65543, label %13
    i32 65542, label %32
    i32 65571, label %51
  ]

13:                                               ; preds = %1
  call void @llvm.lifetime.start.p0(i64 4, ptr %4) #8
  store i32 0, ptr %4, align 4, !tbaa !32
  br label %14

14:                                               ; preds = %28, %13
  %15 = load i32, ptr %4, align 4, !tbaa !32
  %16 = icmp slt i32 %15, 256
  br i1 %16, label %18, label %17

17:                                               ; preds = %14
  call void @llvm.lifetime.end.p0(i64 4, ptr %4) #8
  br label %31

18:                                               ; preds = %14
  %19 = load i32, ptr %4, align 4, !tbaa !32
  %20 = trunc i32 %19 to i8
  %21 = call i32 @alaw2linear(i8 noundef zeroext %20) #9
  %22 = trunc i32 %21 to i16
  %23 = load ptr, ptr %3, align 8, !tbaa !29
  %24 = getelementptr inbounds nuw %struct.PCMLUTDecode, ptr %23, i32 0, i32 1
  %25 = load i32, ptr %4, align 4, !tbaa !32
  %26 = sext i32 %25 to i64
  %27 = getelementptr inbounds [256 x i16], ptr %24, i64 0, i64 %26
  store i16 %22, ptr %27, align 2, !tbaa !33
  br label %28

28:                                               ; preds = %18
  %29 = load i32, ptr %4, align 4, !tbaa !32
  %30 = add nsw i32 %29, 1
  store i32 %30, ptr %4, align 4, !tbaa !32
  br label %14, !llvm.loop !35

31:                                               ; preds = %17
  br label %70

32:                                               ; preds = %1
  call void @llvm.lifetime.start.p0(i64 4, ptr %5) #8
  store i32 0, ptr %5, align 4, !tbaa !32
  br label %33

33:                                               ; preds = %47, %32
  %34 = load i32, ptr %5, align 4, !tbaa !32
  %35 = icmp slt i32 %34, 256
  br i1 %35, label %37, label %36

36:                                               ; preds = %33
  call void @llvm.lifetime.end.p0(i64 4, ptr %5) #8
  br label %50

37:                                               ; preds = %33
  %38 = load i32, ptr %5, align 4, !tbaa !32
  %39 = trunc i32 %38 to i8
  %40 = call i32 @ulaw2linear(i8 noundef zeroext %39) #9
  %41 = trunc i32 %40 to i16
  %42 = load ptr, ptr %3, align 8, !tbaa !29
  %43 = getelementptr inbounds nuw %struct.PCMLUTDecode, ptr %42, i32 0, i32 1
  %44 = load i32, ptr %5, align 4, !tbaa !32
  %45 = sext i32 %44 to i64
  %46 = getelementptr inbounds [256 x i16], ptr %43, i64 0, i64 %45
  store i16 %41, ptr %46, align 2, !tbaa !33
  br label %47

47:                                               ; preds = %37
  %48 = load i32, ptr %5, align 4, !tbaa !32
  %49 = add nsw i32 %48, 1
  store i32 %49, ptr %5, align 4, !tbaa !32
  br label %33, !llvm.loop !37

50:                                               ; preds = %36
  br label %70

51:                                               ; preds = %1
  call void @llvm.lifetime.start.p0(i64 4, ptr %6) #8
  store i32 0, ptr %6, align 4, !tbaa !32
  br label %52

52:                                               ; preds = %66, %51
  %53 = load i32, ptr %6, align 4, !tbaa !32
  %54 = icmp slt i32 %53, 256
  br i1 %54, label %56, label %55

55:                                               ; preds = %52
  call void @llvm.lifetime.end.p0(i64 4, ptr %6) #8
  br label %69

56:                                               ; preds = %52
  %57 = load i32, ptr %6, align 4, !tbaa !32
  %58 = trunc i32 %57 to i8
  %59 = call i32 @vidc2linear(i8 noundef zeroext %58) #9
  %60 = trunc i32 %59 to i16
  %61 = load ptr, ptr %3, align 8, !tbaa !29
  %62 = getelementptr inbounds nuw %struct.PCMLUTDecode, ptr %61, i32 0, i32 1
  %63 = load i32, ptr %6, align 4, !tbaa !32
  %64 = sext i32 %63 to i64
  %65 = getelementptr inbounds [256 x i16], ptr %62, i64 0, i64 %64
  store i16 %60, ptr %65, align 2, !tbaa !33
  br label %66

66:                                               ; preds = %56
  %67 = load i32, ptr %6, align 4, !tbaa !32
  %68 = add nsw i32 %67, 1
  store i32 %68, ptr %6, align 4, !tbaa !32
  br label %52, !llvm.loop !38

69:                                               ; preds = %55
  br label %70

70:                                               ; preds = %1, %69, %50, %31
  %71 = load ptr, ptr %2, align 8, !tbaa !4
  %72 = getelementptr inbounds nuw %struct.AVCodecContext, ptr %71, i32 0, i32 70
  store i32 1, ptr %72, align 4, !tbaa !39
  %73 = load ptr, ptr %3, align 8, !tbaa !29
  %74 = getelementptr inbounds nuw %struct.PCMLUTDecode, ptr %73, i32 0, i32 0
  %75 = getelementptr inbounds nuw %struct.PCMDecode, ptr %74, i32 0, i32 0
  store i32 1, ptr %75, align 4, !tbaa !40
  call void @llvm.lifetime.end.p0(i64 8, ptr %3) #8
  ret i32 0
}