; Function Attrs: cold nofree norecurse nosync nounwind optsize memory(write, argmem: readwrite, inaccessiblemem: none) uwtable
define internal noundef i32 @pcm_lut_decode_init(ptr noundef captures(none) %0) #0 {
  %2 = getelementptr inbounds nuw i8, ptr %0, i64 32
  %3 = load ptr, ptr %2, align 8, !tbaa !4
  %4 = getelementptr inbounds nuw i8, ptr %0, i64 24
  %5 = load i32, ptr %4, align 8, !tbaa !27
  switch i32 %5, label %.loopexit [
    i32 65543, label %.preheader
    i32 65542, label %.preheader21
    i32 65571, label %.preheader23
  ]

.preheader23:                                     ; preds = %1
  %6 = getelementptr inbounds nuw i8, ptr %3, i64 4
  br label %28

.preheader21:                                     ; preds = %1
  %7 = getelementptr inbounds nuw i8, ptr %3, i64 4
  br label %14

.preheader:                                       ; preds = %1
  %8 = getelementptr inbounds nuw i8, ptr %3, i64 4
  br label %9

9:                                                ; preds = %.preheader, %9
  %indvars.iv35 = phi i64 [ 0, %.preheader ], [ %indvars.iv.next36, %9 ]
  %10 = trunc i64 %indvars.iv35 to i8
  %11 = tail call i32 @alaw2linear(i8 noundef zeroext %10) #8
  %12 = trunc nsw i32 %11 to i16
  %13 = getelementptr inbounds nuw [256 x i16], ptr %8, i64 0, i64 %indvars.iv35
  store i16 %12, ptr %13, align 2, !tbaa !28
  %indvars.iv.next36 = add nuw nsw i64 %indvars.iv35, 1
  %exitcond38.not = icmp eq i64 %indvars.iv.next36, 256
  br i1 %exitcond38.not, label %.loopexit, label %9, !llvm.loop !30

14:                                               ; preds = %.preheader21, %14
  %indvars.iv31 = phi i64 [ 0, %.preheader21 ], [ %indvars.iv.next32, %14 ]
  %15 = trunc nuw nsw i64 %indvars.iv31 to i32
  %16 = xor i32 %15, 255
  %17 = shl nuw nsw i32 %16, 3
  %18 = and i32 %17, 120
  %19 = or disjoint i32 %18, 132
  %20 = lshr i32 %16, 4
  %21 = and i32 %20, 7
  %22 = shl nuw nsw i32 %19, %21
  %.not.i.not = icmp samesign ult i64 %indvars.iv31, 128
  %23 = sub nsw i32 132, %22
  %24 = add nuw nsw i32 %22, 65404
  %25 = select i1 %.not.i.not, i32 %23, i32 %24
  %26 = trunc i32 %25 to i16
  %27 = getelementptr inbounds nuw [256 x i16], ptr %7, i64 0, i64 %indvars.iv31
  store i16 %26, ptr %27, align 2, !tbaa !28
  %indvars.iv.next32 = add nuw nsw i64 %indvars.iv31, 1
  %exitcond34.not = icmp eq i64 %indvars.iv.next32, 256
  br i1 %exitcond34.not, label %.loopexit, label %14, !llvm.loop !32

28:                                               ; preds = %.preheader23, %28
  %indvars.iv = phi i64 [ 0, %.preheader23 ], [ %indvars.iv.next, %28 ]
  %indvars.iv.tr = trunc i64 %indvars.iv to i32
  %29 = shl i32 %indvars.iv.tr, 2
  %30 = and i32 %29, 120
  %31 = or disjoint i32 %30, 132
  %32 = trunc nuw nsw i64 %indvars.iv to i32
  %33 = lshr i32 %32, 5
  %34 = shl nuw nsw i32 %31, %33
  %35 = and i32 %32, 1
  %.not.i20 = icmp eq i32 %35, 0
  %36 = sub nsw i32 132, %34
  %37 = add nuw nsw i32 %34, 65404
  %38 = select i1 %.not.i20, i32 %37, i32 %36
  %39 = trunc i32 %38 to i16
  %40 = getelementptr inbounds nuw [256 x i16], ptr %6, i64 0, i64 %indvars.iv
  store i16 %39, ptr %40, align 2, !tbaa !28
  %indvars.iv.next = add nuw nsw i64 %indvars.iv, 1
  %exitcond.not = icmp eq i64 %indvars.iv.next, 256
  br i1 %exitcond.not, label %.loopexit, label %28, !llvm.loop !33

.loopexit:                                        ; preds = %28, %14, %9, %1
  %41 = getelementptr inbounds nuw i8, ptr %0, i64 348
  store i32 1, ptr %41, align 4, !tbaa !34
  store i32 1, ptr %3, align 4, !tbaa !35
  ret i32 0
}